; Function Attrs: mustprogress nofree norecurse nosync nounwind willreturn memory(read, argmem: readwrite, inaccessiblemem: none) uwtable
define range(i32 0, 256) i32 @ff_msmpeg4_coded_block_pred(ptr noundef readonly captures(none) %0, i32 noundef %1, ptr noundef writeonly captures(none) initializes((0, 8)) %2) local_unnamed_addr #2 {
  %4 = getelementptr inbounds nuw i8, ptr %0, i64 3364
  %5 = sext i32 %1 to i64
  %6 = getelementptr inbounds [6 x i32], ptr %4, i64 0, i64 %5
  %7 = load i32, ptr %6, align 4, !tbaa !41
  %8 = getelementptr inbounds nuw i8, ptr %0, i64 552
  %9 = load i32, ptr %8, align 8, !tbaa !42
  %10 = getelementptr inbounds nuw i8, ptr %0, i64 1360
  %11 = load ptr, ptr %10, align 8, !tbaa !43
  %12 = add nsw i32 %7, -1
  %13 = sub nsw i32 %12, %9
  %14 = sext i32 %13 to i64
  %15 = getelementptr inbounds i8, ptr %11, i64 %14
  %16 = load i8, ptr %15, align 1, !tbaa !44
  %17 = sub nsw i32 %7, %9
  %18 = sext i32 %17 to i64
  %19 = getelementptr inbounds i8, ptr %11, i64 %18
  %20 = load i8, ptr %19, align 1, !tbaa !44
  %21 = icmp eq i8 %16, %20
  br i1 %21, label %22, label %26

22:                                               ; preds = %3
  %23 = sext i32 %12 to i64
  %24 = getelementptr inbounds i8, ptr %11, i64 %23
  %25 = load i8, ptr %24, align 1, !tbaa !44
  br label %26

26:                                               ; preds = %3, %22
  %.0.in = phi i8 [ %25, %22 ], [ %20, %3 ]
  %.0 = zext i8 %.0.in to i32
  %27 = sext i32 %7 to i64
  %28 = getelementptr inbounds i8, ptr %11, i64 %27
  store ptr %28, ptr %2, align 8, !tbaa !45
  ret i32 %.0
}